target datalayout = "e-m:e-p270:32:32-p271:32:32-p272:64:64-i64:64-i128:128-f80:128-n8:16:32:64-S128"
target triple = "x86_64-unknown-linux-gnu"

%"class.google::protobuf::internal::InternalMetadata" = type { i64 }
%union.anon = type { %"struct.google::protobuf::Timestamp::Impl_" }
%"struct.google::protobuf::Timestamp::Impl_" = type { i64, i32, %"class.google::protobuf::internal::CachedSize" }
%"class.google::protobuf::internal::CachedSize" = type { i32 }
%"class.google::protobuf::Timestamp" = type { %"class.google::protobuf::Message", %union.anon }
%"class.google::protobuf::Message" = type { %"class.google::protobuf::MessageLite" }
%"class.google::protobuf::MessageLite" = type { ptr, %"class.google::protobuf::internal::InternalMetadata" }

; Function Attrs: mustprogress uwtable
define void @_ZN6google8protobuf9Timestamp5ClearEv(ptr noundef nonnull align 8 dereferenceable(32) %this) unnamed_addr #4 align 2 {
entry:
  %this.addr.i6 = alloca ptr, align 8
  %this.addr.i3 = alloca ptr, align 8
  %this.addr.i = alloca ptr, align 8
  %this.addr = alloca ptr, align 8
  %cached_has_bits = alloca i32, align 4
  store ptr %this, ptr %this.addr, align 8
  %this1 = load ptr, ptr %this.addr, align 8
  store i32 0, ptr %cached_has_bits, align 4
  %0 = getelementptr inbounds %"class.google::protobuf::Timestamp", ptr %this1, i32 0, i32 1
  %seconds_ = getelementptr inbounds %"struct.google::protobuf::Timestamp::Impl_", ptr %0, i32 0, i32 0
  %1 = getelementptr inbounds %"class.google::protobuf::Timestamp", ptr %this1, i32 0, i32 1
  %nanos_ = getelementptr inbounds %"struct.google::protobuf::Timestamp::Impl_", ptr %1, i32 0, i32 1
  %2 = getelementptr inbounds %"class.google::protobuf::Timestamp", ptr %this1, i32 0, i32 1
  %seconds_2 = getelementptr inbounds %"struct.google::protobuf::Timestamp::Impl_", ptr %2, i32 0, i32 0
  %sub.ptr.lhs.cast = ptrtoint ptr %nanos_ to i64
  %sub.ptr.rhs.cast = ptrtoint ptr %seconds_2 to i64
  %sub.ptr.sub = sub i64 %sub.ptr.lhs.cast, %sub.ptr.rhs.cast
  %add = add i64 %sub.ptr.sub, 4
  call void @llvm.memset.p0.i64(ptr align 8 %seconds_, i8 0, i64 %add, i1 false)
  %_internal_metadata_ = getelementptr inbounds %"class.google::protobuf::MessageLite", ptr %this1, i32 0, i32 1
  store ptr %_internal_metadata_, ptr %this.addr.i, align 8
  %this1.i = load ptr, ptr %this.addr.i, align 8
  store ptr %this1.i, ptr %this.addr.i3, align 8
  %this1.i4 = load ptr, ptr %this.addr.i3, align 8
  store ptr %this1.i4, ptr %this.addr.i6, align 8
  %this1.i7 = load ptr, ptr %this.addr.i6, align 8
  %3 = load i64, ptr %this1.i7, align 8
  %and.i = and i64 %3, 1
  %tobool.i = icmp ne i64 %and.i, 0
  br i1 %tobool.i, label %if.then.i, label %_ZN6google8protobuf8internal16InternalMetadata5ClearINS0_15UnknownFieldSetEEEvv.exit

if.then.i:                                        ; preds = %entry
  call void @_ZN6google8protobuf8internal16InternalMetadata7DoClearINS0_15UnknownFieldSetEEEvv(ptr noundef nonnull align 8 dereferenceable(8) %this1.i)
  br label %_ZN6google8protobuf8internal16InternalMetadata5ClearINS0_15UnknownFieldSetEEEvv.exit

_ZN6google8protobuf8internal16InternalMetadata5ClearINS0_15UnknownFieldSetEEEvv.exit: ; preds = %if.then.i, %entry
  ret void
}